; Function Attrs: nounwind uwtable
define internal void @CVSptfqmrFree(ptr noundef %0) #0 {
  %2 = getelementptr inbounds nuw i8, ptr %0, i64 1696
  %3 = load ptr, ptr %2, align 8, !tbaa !41
  %4 = getelementptr inbounds nuw i8, ptr %3, i64 112
  %5 = load ptr, ptr %4, align 8, !tbaa !37
  tail call void @N_VDestroy(ptr noundef %5) #7
  %6 = getelementptr inbounds nuw i8, ptr %3, i64 120
  %7 = load ptr, ptr %6, align 8, !tbaa !38
  tail call void @N_VDestroy(ptr noundef %7) #7
  %8 = getelementptr inbounds nuw i8, ptr %3, i64 144
  %9 = load ptr, ptr %8, align 8, !tbaa !40
  tail call void @SptfqmrFree(ptr noundef %9) #7
  %10 = getelementptr inbounds nuw i8, ptr %3, i64 168
  %11 = load ptr, ptr %10, align 8, !tbaa !64
  %.not = icmp eq ptr %11, null
  br i1 %.not, label %13, label %12

12:                                               ; preds = %1
  tail call void %11(ptr noundef nonnull %0) #7
  br label %13

13:                                               ; preds = %12, %1
  tail call void @free(ptr noundef nonnull %3) #7
  store ptr null, ptr %2, align 8, !tbaa !41
  ret void
}